target datalayout = "e-m:e-p270:32:32-p271:32:32-p272:64:64-i64:64-i128:128-f80:128-n8:16:32:64-S128"
target triple = "x86_64-pc-linux-gnu"

@psk_key = dso_local global ptr null, align 8
@bio_s_out = internal global ptr null, align 8
@s_debug = internal global i32 0, align 4
@.str.412 = private unnamed_addr constant [27 x i8] c"../openssl/apps/s_server.c\00", align 1
@bio_err = external global ptr, align 8
@psk_identity = internal global ptr @.str.474, align 8
@.str.479 = private unnamed_addr constant [15 x i8] c"psk_server_cb\0A\00", align 1
@.str.480 = private unnamed_addr constant [41 x i8] c"Error: client did not send PSK identity\0A\00", align 1
@.str.481 = private unnamed_addr constant [29 x i8] c"identity_len=%d identity=%s\0A\00", align 1
@.str.482 = private unnamed_addr constant [76 x i8] c"PSK warning: client identity not what we expected (got '%s' expected '%s')\0A\00", align 1
@.str.483 = private unnamed_addr constant [27 x i8] c"PSK client identity found\0A\00", align 1
@.str.484 = private unnamed_addr constant [42 x i8] c"Could not convert PSK key '%s' to buffer\0A\00", align 1
@.str.485 = private unnamed_addr constant [56 x i8] c"psk buffer of callback is too small (%d) for key (%ld)\0A\00", align 1
@.str.486 = private unnamed_addr constant [21 x i8] c"fetched PSK len=%ld\0A\00", align 1
@.str.487 = private unnamed_addr constant [30 x i8] c"Error in PSK server callback\0A\00", align 1

; Function Attrs: nounwind uwtable
define internal i32 @psk_server_cb(ptr noundef %0, ptr noundef %1, ptr noundef %2, i32 noundef %3) #0 {
  %5 = alloca i32, align 4
  %6 = alloca ptr, align 8
  %7 = alloca ptr, align 8
  %8 = alloca ptr, align 8
  %9 = alloca i32, align 4
  %10 = alloca i64, align 8
  %11 = alloca ptr, align 8
  %12 = alloca i32, align 4
  store ptr %0, ptr %6, align 8, !tbaa !73
  store ptr %1, ptr %7, align 8, !tbaa !31
  store ptr %2, ptr %8, align 8, !tbaa !31
  store i32 %3, ptr %9, align 4, !tbaa !4
  call void @llvm.lifetime.start.p0(i64 8, ptr %10) #10
  store i64 0, ptr %10, align 8, !tbaa !54
  call void @llvm.lifetime.start.p0(i64 8, ptr %11) #10
  %13 = load i32, ptr @s_debug, align 4, !tbaa !4
  %14 = icmp ne i32 %13, 0
  br i1 %14, label %15, label %18

15:                                               ; preds = %4
  %16 = load ptr, ptr @bio_s_out, align 8, !tbaa !35
  %17 = call i32 (ptr, ptr, ...) @BIO_printf(ptr noundef %16, ptr noundef @.str.479)
  br label %18

18:                                               ; preds = %15, %4
  %19 = load ptr, ptr %6, align 8, !tbaa !73
  %20 = call i32 @SSL_is_dtls(ptr noundef %19)
  %21 = icmp ne i32 %20, 0
  br i1 %21, label %27, label %22

22:                                               ; preds = %18
  %23 = load ptr, ptr %6, align 8, !tbaa !73
  %24 = call i32 @SSL_version(ptr noundef %23)
  %25 = icmp sge i32 %24, 772
  br i1 %25, label %26, label %27

26:                                               ; preds = %22
  store i32 0, ptr %5, align 4
  store i32 1, ptr %12, align 4
  br label %105

27:                                               ; preds = %22, %18
  %28 = load ptr, ptr %7, align 8, !tbaa !31
  %29 = icmp eq ptr %28, null
  br i1 %29, label %30, label %33

30:                                               ; preds = %27
  %31 = load ptr, ptr @bio_err, align 8, !tbaa !35
  %32 = call i32 (ptr, ptr, ...) @BIO_printf(ptr noundef %31, ptr noundef @.str.480)
  br label %94

33:                                               ; preds = %27
  %34 = load i32, ptr @s_debug, align 4, !tbaa !4
  %35 = icmp ne i32 %34, 0
  br i1 %35, label %36, label %43

36:                                               ; preds = %33
  %37 = load ptr, ptr @bio_s_out, align 8, !tbaa !35
  %38 = load ptr, ptr %7, align 8, !tbaa !31
  %39 = call i64 @strlen(ptr noundef %38) #11
  %40 = trunc i64 %39 to i32
  %41 = load ptr, ptr %7, align 8, !tbaa !31
  %42 = call i32 (ptr, ptr, ...) @BIO_printf(ptr noundef %37, ptr noundef @.str.481, i32 noundef %40, ptr noundef %41)
  br label %43

43:                                               ; preds = %36, %33
  %44 = load ptr, ptr %7, align 8, !tbaa !31
  %45 = load ptr, ptr @psk_identity, align 8, !tbaa !31
  %46 = call i32 @strcmp(ptr noundef %44, ptr noundef %45) #11
  %47 = icmp ne i32 %46, 0
  br i1 %47, label %48, label %53

48:                                               ; preds = %43
  %49 = load ptr, ptr @bio_s_out, align 8, !tbaa !35
  %50 = load ptr, ptr %7, align 8, !tbaa !31
  %51 = load ptr, ptr @psk_identity, align 8, !tbaa !31
  %52 = call i32 (ptr, ptr, ...) @BIO_printf(ptr noundef %49, ptr noundef @.str.482, ptr noundef %50, ptr noundef %51)
  br label %60

53:                                               ; preds = %43
  %54 = load i32, ptr @s_debug, align 4, !tbaa !4
  %55 = icmp ne i32 %54, 0
  br i1 %55, label %56, label %59

56:                                               ; preds = %53
  %57 = load ptr, ptr @bio_s_out, align 8, !tbaa !35
  %58 = call i32 (ptr, ptr, ...) @BIO_printf(ptr noundef %57, ptr noundef @.str.483)
  br label %59

59:                                               ; preds = %56, %53
  br label %60

60:                                               ; preds = %59, %48
  %61 = load ptr, ptr @psk_key, align 8, !tbaa !31
  %62 = call ptr @OPENSSL_hexstr2buf(ptr noundef %61, ptr noundef %10)
  store ptr %62, ptr %11, align 8, !tbaa !31
  %63 = load ptr, ptr %11, align 8, !tbaa !31
  %64 = icmp eq ptr %63, null
  br i1 %64, label %65, label %69

65:                                               ; preds = %60
  %66 = load ptr, ptr @bio_err, align 8, !tbaa !35
  %67 = load ptr, ptr @psk_key, align 8, !tbaa !31
  %68 = call i32 (ptr, ptr, ...) @BIO_printf(ptr noundef %66, ptr noundef @.str.484, ptr noundef %67)
  store i32 0, ptr %5, align 4
  store i32 1, ptr %12, align 4
  br label %105

69:                                               ; preds = %60
  %70 = load i64, ptr %10, align 8, !tbaa !54
  %71 = load i32, ptr %9, align 4, !tbaa !4
  %72 = sext i32 %71 to i64
  %73 = icmp sgt i64 %70, %72
  br i1 %73, label %74, label %80

74:                                               ; preds = %69
  %75 = load ptr, ptr @bio_err, align 8, !tbaa !35
  %76 = load i32, ptr %9, align 4, !tbaa !4
  %77 = load i64, ptr %10, align 8, !tbaa !54
  %78 = call i32 (ptr, ptr, ...) @BIO_printf(ptr noundef %75, ptr noundef @.str.485, i32 noundef %76, i64 noundef %77)
  %79 = load ptr, ptr %11, align 8, !tbaa !31
  call void @CRYPTO_free(ptr noundef %79, ptr noundef @.str.412, i32 noundef 178)
  store i32 0, ptr %5, align 4
  store i32 1, ptr %12, align 4
  br label %105

80:                                               ; preds = %69
  %81 = load ptr, ptr %8, align 8, !tbaa !31
  %82 = load ptr, ptr %11, align 8, !tbaa !31
  %83 = load i64, ptr %10, align 8, !tbaa !54
  call void @llvm.memcpy.p0.p0.i64(ptr align 1 %81, ptr align 1 %82, i64 %83, i1 false)
  %84 = load ptr, ptr %11, align 8, !tbaa !31
  call void @CRYPTO_free(ptr noundef %84, ptr noundef @.str.412, i32 noundef 183)
  %85 = load i32, ptr @s_debug, align 4, !tbaa !4
  %86 = icmp ne i32 %85, 0
  br i1 %86, label %87, label %91

87:                                               ; preds = %80
  %88 = load ptr, ptr @bio_s_out, align 8, !tbaa !35
  %89 = load i64, ptr %10, align 8, !tbaa !54
  %90 = call i32 (ptr, ptr, ...) @BIO_printf(ptr noundef %88, ptr noundef @.str.486, i64 noundef %89)
  br label %91

91:                                               ; preds = %87, %80
  %92 = load i64, ptr %10, align 8, !tbaa !54
  %93 = trunc i64 %92 to i32
  store i32 %93, ptr %5, align 4
  store i32 1, ptr %12, align 4
  br label %105

94:                                               ; preds = %30
  %95 = load i32, ptr @s_debug, align 4, !tbaa !4
  %96 = icmp ne i32 %95, 0
  br i1 %96, label %97, label %100

97:                                               ; preds = %94
  %98 = load ptr, ptr @bio_err, align 8, !tbaa !35
  %99 = call i32 (ptr, ptr, ...) @BIO_printf(ptr noundef %98, ptr noundef @.str.487)
  br label %100

100:                                              ; preds = %97, %94
  %101 = load ptr, ptr @bio_err, align 8, !tbaa !35
  %102 = call i64 @BIO_ctrl(ptr noundef %101, i32 noundef 11, i64 noundef 0, ptr noundef null)
  %103 = load ptr, ptr @bio_s_out, align 8, !tbaa !35
  %104 = call i64 @BIO_ctrl(ptr noundef %103, i32 noundef 11, i64 noundef 0, ptr noundef null)
  store i32 0, ptr %5, align 4
  store i32 1, ptr %12, align 4
  br label %105

105:                                              ; preds = %100, %91, %74, %65, %26
  call void @llvm.lifetime.end.p0(i64 8, ptr %11) #10
  call void @llvm.lifetime.end.p0(i64 8, ptr %10) #10
  %106 = load i32, ptr %5, align 4
  ret i32 %106
}