; Function Attrs: nounwind uwtable
define internal i32 @psk_server_cb(ptr noundef %0, ptr noundef %1, ptr noundef writeonly captures(none) %2, i32 noundef %3) #0 {
  %5 = alloca i64, align 8
  call void @llvm.lifetime.start.p0(i64 8, ptr nonnull %5) #14
  store i64 0, ptr %5, align 8, !tbaa !38
  %.b20 = load i1, ptr @s_debug, align 4
  br i1 %.b20, label %6, label %9

6:                                                ; preds = %4
  %7 = load ptr, ptr @bio_s_out, align 8, !tbaa !19
  %8 = tail call i32 (ptr, ptr, ...) @BIO_printf(ptr noundef %7, ptr noundef nonnull @.str.479) #14
  br label %9

9:                                                ; preds = %6, %4
  %10 = tail call i32 @SSL_is_dtls(ptr noundef %0) #14
  %.not = icmp eq i32 %10, 0
  br i1 %.not, label %11, label %14

11:                                               ; preds = %9
  %12 = tail call i32 @SSL_version(ptr noundef %0) #14
  %13 = icmp sgt i32 %12, 771
  br i1 %13, label %66, label %14

14:                                               ; preds = %11, %9
  %15 = icmp eq ptr %1, null
  br i1 %15, label %16, label %19

16:                                               ; preds = %14
  %17 = load ptr, ptr @bio_err, align 8, !tbaa !19
  %18 = tail call i32 (ptr, ptr, ...) @BIO_printf(ptr noundef %17, ptr noundef nonnull @.str.480) #14
  %.b = load i1, ptr @s_debug, align 4
  br i1 %.b, label %58, label %61

19:                                               ; preds = %14
  %.b19 = load i1, ptr @s_debug, align 4
  br i1 %.b19, label %20, label %25

20:                                               ; preds = %19
  %21 = load ptr, ptr @bio_s_out, align 8, !tbaa !19
  %22 = tail call i64 @strlen(ptr noundef nonnull dereferenceable(1) %1) #16
  %23 = trunc i64 %22 to i32
  %24 = tail call i32 (ptr, ptr, ...) @BIO_printf(ptr noundef %21, ptr noundef nonnull @.str.481, i32 noundef %23, ptr noundef nonnull %1) #14
  br label %25

25:                                               ; preds = %20, %19
  %26 = load ptr, ptr @psk_identity, align 8, !tbaa !11
  %27 = tail call i32 @strcmp(ptr noundef nonnull dereferenceable(1) %1, ptr noundef nonnull dereferenceable(1) %26) #16
  %.not21 = icmp eq i32 %27, 0
  br i1 %.not21, label %31, label %28

28:                                               ; preds = %25
  %29 = load ptr, ptr @bio_s_out, align 8, !tbaa !19
  %30 = tail call i32 (ptr, ptr, ...) @BIO_printf(ptr noundef %29, ptr noundef nonnull @.str.482, ptr noundef nonnull %1, ptr noundef nonnull %26) #14
  br label %35

31:                                               ; preds = %25
  %.b18 = load i1, ptr @s_debug, align 4
  br i1 %.b18, label %32, label %35

32:                                               ; preds = %31
  %33 = load ptr, ptr @bio_s_out, align 8, !tbaa !19
  %34 = tail call i32 (ptr, ptr, ...) @BIO_printf(ptr noundef %33, ptr noundef nonnull @.str.483) #14
  br label %35

35:                                               ; preds = %31, %32, %28
  %36 = load ptr, ptr @psk_key, align 8, !tbaa !11
  %37 = call ptr @OPENSSL_hexstr2buf(ptr noundef %36, ptr noundef nonnull %5) #14
  %38 = icmp eq ptr %37, null
  br i1 %38, label %39, label %43

39:                                               ; preds = %35
  %40 = load ptr, ptr @bio_err, align 8, !tbaa !19
  %41 = load ptr, ptr @psk_key, align 8, !tbaa !11
  %42 = call i32 (ptr, ptr, ...) @BIO_printf(ptr noundef %40, ptr noundef nonnull @.str.484, ptr noundef %41) #14
  br label %66

43:                                               ; preds = %35
  %44 = load i64, ptr %5, align 8, !tbaa !38
  %45 = sext i32 %3 to i64
  %46 = icmp sgt i64 %44, %45
  br i1 %46, label %47, label %50

47:                                               ; preds = %43
  %48 = load ptr, ptr @bio_err, align 8, !tbaa !19
  %49 = call i32 (ptr, ptr, ...) @BIO_printf(ptr noundef %48, ptr noundef nonnull @.str.485, i32 noundef %3, i64 noundef %44) #14
  call void @CRYPTO_free(ptr noundef nonnull %37, ptr noundef nonnull @.str.412, i32 noundef 178) #14
  br label %66

50:                                               ; preds = %43
  call void @llvm.memcpy.p0.p0.i64(ptr align 1 %2, ptr nonnull align 1 %37, i64 %44, i1 false)
  call void @CRYPTO_free(ptr noundef nonnull %37, ptr noundef nonnull @.str.412, i32 noundef 183) #14
  %.b17 = load i1, ptr @s_debug, align 4
  br i1 %.b17, label %51, label %55

51:                                               ; preds = %50
  %52 = load ptr, ptr @bio_s_out, align 8, !tbaa !19
  %53 = load i64, ptr %5, align 8, !tbaa !38
  %54 = call i32 (ptr, ptr, ...) @BIO_printf(ptr noundef %52, ptr noundef nonnull @.str.486, i64 noundef %53) #14
  br label %55

55:                                               ; preds = %51, %50
  %56 = load i64, ptr %5, align 8, !tbaa !38
  %57 = trunc i64 %56 to i32
  br label %66

58:                                               ; preds = %16
  %59 = load ptr, ptr @bio_err, align 8, !tbaa !19
  %60 = tail call i32 (ptr, ptr, ...) @BIO_printf(ptr noundef %59, ptr noundef nonnull @.str.487) #14
  br label %61

61:                                               ; preds = %58, %16
  %62 = load ptr, ptr @bio_err, align 8, !tbaa !19
  %63 = tail call i64 @BIO_ctrl(ptr noundef %62, i32 noundef 11, i64 noundef 0, ptr noundef null) #14
  %64 = load ptr, ptr @bio_s_out, align 8, !tbaa !19
  %65 = tail call i64 @BIO_ctrl(ptr noundef %64, i32 noundef 11, i64 noundef 0, ptr noundef null) #14
  br label %66

66:                                               ; preds = %11, %61, %55, %47, %39
  %.0 = phi i32 [ 0, %61 ], [ 0, %39 ], [ 0, %47 ], [ %57, %55 ], [ 0, %11 ]
  call void @llvm.lifetime.end.p0(i64 8, ptr nonnull %5) #14
  ret i32 %.0
}